target datalayout = "e-m:e-p270:32:32-p271:32:32-p272:64:64-i64:64-i128:128-f80:128-n8:16:32:64-S128"
target triple = "x86_64-pc-linux-gnu"

%struct.ssl_cipher_st = type { i32, ptr, ptr, i32, i32, i32, i32, i32, i32, i32, i32, i32, i32, i32, i32, i32 }

; Function Attrs: nounwind uwtable
define ptr @ssl3_get_cipher_by_id(i32 noundef %0) #0 {
  %2 = alloca ptr, align 8
  %3 = alloca i32, align 4
  %4 = alloca %struct.ssl_cipher_st, align 8
  %5 = alloca ptr, align 8
  %6 = alloca i32, align 4
  store i32 %0, ptr %3, align 4, !tbaa !18
  call void @llvm.lifetime.start.p0(i64 80, ptr %4) #10
  call void @llvm.lifetime.start.p0(i64 8, ptr %5) #10
  %7 = load i32, ptr %3, align 4, !tbaa !18
  %8 = getelementptr inbounds nuw %struct.ssl_cipher_st, ptr %4, i32 0, i32 3
  store i32 %7, ptr %8, align 8, !tbaa !9
  %9 = call ptr @OBJ_bsearch_ssl_cipher_id(ptr noundef %4, ptr noundef @tls13_ciphers, i32 noundef 7)
  store ptr %9, ptr %5, align 8, !tbaa !7
  %10 = load ptr, ptr %5, align 8, !tbaa !7
  %11 = icmp ne ptr %10, null
  br i1 %11, label %12, label %14

12:                                               ; preds = %1
  %13 = load ptr, ptr %5, align 8, !tbaa !7
  store ptr %13, ptr %2, align 8
  store i32 1, ptr %6, align 4
  br label %22

14:                                               ; preds = %1
  %15 = call ptr @OBJ_bsearch_ssl_cipher_id(ptr noundef %4, ptr noundef @ssl3_ciphers, i32 noundef 167)
  store ptr %15, ptr %5, align 8, !tbaa !7
  %16 = load ptr, ptr %5, align 8, !tbaa !7
  %17 = icmp ne ptr %16, null
  br i1 %17, label %18, label %20

18:                                               ; preds = %14
  %19 = load ptr, ptr %5, align 8, !tbaa !7
  store ptr %19, ptr %2, align 8
  store i32 1, ptr %6, align 4
  br label %22

20:                                               ; preds = %14
  %21 = call ptr @OBJ_bsearch_ssl_cipher_id(ptr noundef %4, ptr noundef @ssl3_scsvs, i32 noundef 2)
  store ptr %21, ptr %2, align 8
  store i32 1, ptr %6, align 4
  br label %22

22:                                               ; preds = %20, %18, %12
  call void @llvm.lifetime.end.p0(i64 8, ptr %5) #10
  call void @llvm.lifetime.end.p0(i64 80, ptr %4) #10
  %23 = load ptr, ptr %2, align 8
  ret ptr %23
}