; Function Attrs: nounwind uwtable
define ptr @ssl3_get_cipher_by_id(i32 noundef %0) local_unnamed_addr #4 {
  %2 = alloca %struct.ssl_cipher_st, align 8
  call void @llvm.lifetime.start.p0(i64 80, ptr nonnull %2) #18
  %3 = getelementptr inbounds nuw i8, ptr %2, i64 24
  store i32 %0, ptr %3, align 8, !tbaa !3
  %4 = call ptr @OBJ_bsearch_ssl_cipher_id(ptr noundef nonnull %2, ptr noundef nonnull @tls13_ciphers, i32 noundef 7) #18
  %.not = icmp eq ptr %4, null
  br i1 %.not, label %5, label %9

5:                                                ; preds = %1
  %6 = call ptr @OBJ_bsearch_ssl_cipher_id(ptr noundef nonnull %2, ptr noundef nonnull @ssl3_ciphers, i32 noundef 167) #18
  %.not7 = icmp eq ptr %6, null
  br i1 %.not7, label %7, label %9

7:                                                ; preds = %5
  %8 = call ptr @OBJ_bsearch_ssl_cipher_id(ptr noundef nonnull %2, ptr noundef nonnull @ssl3_scsvs, i32 noundef 2) #18
  br label %9

9:                                                ; preds = %5, %1, %7
  %.0 = phi ptr [ %8, %7 ], [ %4, %1 ], [ %6, %5 ]
  call void @llvm.lifetime.end.p0(i64 80, ptr nonnull %2) #18
  ret ptr %.0
}